target datalayout = "e-m:e-p270:32:32-p271:32:32-p272:64:64-i64:64-i128:128-f80:128-n8:16:32:64-S128"
target triple = "x86_64-pc-linux-gnu"

%struct.mbedtls_sha256_context = type { [64 x i8], [2 x i32], [8 x i32], i32 }

; Function Attrs: nounwind uwtable
define hidden i32 @mbedtls_sha256_starts(ptr noundef %0, i32 noundef %1) #0 {
  %3 = alloca i32, align 4
  %4 = alloca ptr, align 8
  %5 = alloca i32, align 4
  store ptr %0, ptr %4, align 8, !tbaa !3
  store i32 %1, ptr %5, align 4, !tbaa !10
  %6 = load i32, ptr %5, align 4, !tbaa !10
  %7 = icmp ne i32 %6, 0
  br i1 %7, label %8, label %12

8:                                                ; preds = %2
  %9 = load i32, ptr %5, align 4, !tbaa !10
  %10 = icmp ne i32 %9, 1
  br i1 %10, label %11, label %12

11:                                               ; preds = %8
  store i32 -116, ptr %3, align 4
  br label %75

12:                                               ; preds = %8, %2
  %13 = load ptr, ptr %4, align 8, !tbaa !3
  %14 = getelementptr inbounds nuw %struct.mbedtls_sha256_context, ptr %13, i32 0, i32 1
  %15 = getelementptr inbounds [2 x i32], ptr %14, i64 0, i64 0
  store i32 0, ptr %15, align 4, !tbaa !10
  %16 = load ptr, ptr %4, align 8, !tbaa !3
  %17 = getelementptr inbounds nuw %struct.mbedtls_sha256_context, ptr %16, i32 0, i32 1
  %18 = getelementptr inbounds [2 x i32], ptr %17, i64 0, i64 1
  store i32 0, ptr %18, align 4, !tbaa !10
  %19 = load i32, ptr %5, align 4, !tbaa !10
  %20 = icmp eq i32 %19, 0
  br i1 %20, label %21, label %46

21:                                               ; preds = %12
  %22 = load ptr, ptr %4, align 8, !tbaa !3
  %23 = getelementptr inbounds nuw %struct.mbedtls_sha256_context, ptr %22, i32 0, i32 2
  %24 = getelementptr inbounds [8 x i32], ptr %23, i64 0, i64 0
  store i32 1779033703, ptr %24, align 4, !tbaa !10
  %25 = load ptr, ptr %4, align 8, !tbaa !3
  %26 = getelementptr inbounds nuw %struct.mbedtls_sha256_context, ptr %25, i32 0, i32 2
  %27 = getelementptr inbounds [8 x i32], ptr %26, i64 0, i64 1
  store i32 -1150833019, ptr %27, align 4, !tbaa !10
  %28 = load ptr, ptr %4, align 8, !tbaa !3
  %29 = getelementptr inbounds nuw %struct.mbedtls_sha256_context, ptr %28, i32 0, i32 2
  %30 = getelementptr inbounds [8 x i32], ptr %29, i64 0, i64 2
  store i32 1013904242, ptr %30, align 4, !tbaa !10
  %31 = load ptr, ptr %4, align 8, !tbaa !3
  %32 = getelementptr inbounds nuw %struct.mbedtls_sha256_context, ptr %31, i32 0, i32 2
  %33 = getelementptr inbounds [8 x i32], ptr %32, i64 0, i64 3
  store i32 -1521486534, ptr %33, align 4, !tbaa !10
  %34 = load ptr, ptr %4, align 8, !tbaa !3
  %35 = getelementptr inbounds nuw %struct.mbedtls_sha256_context, ptr %34, i32 0, i32 2
  %36 = getelementptr inbounds [8 x i32], ptr %35, i64 0, i64 4
  store i32 1359893119, ptr %36, align 4, !tbaa !10
  %37 = load ptr, ptr %4, align 8, !tbaa !3
  %38 = getelementptr inbounds nuw %struct.mbedtls_sha256_context, ptr %37, i32 0, i32 2
  %39 = getelementptr inbounds [8 x i32], ptr %38, i64 0, i64 5
  store i32 -1694144372, ptr %39, align 4, !tbaa !10
  %40 = load ptr, ptr %4, align 8, !tbaa !3
  %41 = getelementptr inbounds nuw %struct.mbedtls_sha256_context, ptr %40, i32 0, i32 2
  %42 = getelementptr inbounds [8 x i32], ptr %41, i64 0, i64 6
  store i32 528734635, ptr %42, align 4, !tbaa !10
  %43 = load ptr, ptr %4, align 8, !tbaa !3
  %44 = getelementptr inbounds nuw %struct.mbedtls_sha256_context, ptr %43, i32 0, i32 2
  %45 = getelementptr inbounds [8 x i32], ptr %44, i64 0, i64 7
  store i32 1541459225, ptr %45, align 4, !tbaa !10
  br label %71

46:                                               ; preds = %12
  %47 = load ptr, ptr %4, align 8, !tbaa !3
  %48 = getelementptr inbounds nuw %struct.mbedtls_sha256_context, ptr %47, i32 0, i32 2
  %49 = getelementptr inbounds [8 x i32], ptr %48, i64 0, i64 0
  store i32 -1056596264, ptr %49, align 4, !tbaa !10
  %50 = load ptr, ptr %4, align 8, !tbaa !3
  %51 = getelementptr inbounds nuw %struct.mbedtls_sha256_context, ptr %50, i32 0, i32 2
  %52 = getelementptr inbounds [8 x i32], ptr %51, i64 0, i64 1
  store i32 914150663, ptr %52, align 4, !tbaa !10
  %53 = load ptr, ptr %4, align 8, !tbaa !3
  %54 = getelementptr inbounds nuw %struct.mbedtls_sha256_context, ptr %53, i32 0, i32 2
  %55 = getelementptr inbounds [8 x i32], ptr %54, i64 0, i64 2
  store i32 812702999, ptr %55, align 4, !tbaa !10
  %56 = load ptr, ptr %4, align 8, !tbaa !3
  %57 = getelementptr inbounds nuw %struct.mbedtls_sha256_context, ptr %56, i32 0, i32 2
  %58 = getelementptr inbounds [8 x i32], ptr %57, i64 0, i64 3
  store i32 -150054599, ptr %58, align 4, !tbaa !10
  %59 = load ptr, ptr %4, align 8, !tbaa !3
  %60 = getelementptr inbounds nuw %struct.mbedtls_sha256_context, ptr %59, i32 0, i32 2
  %61 = getelementptr inbounds [8 x i32], ptr %60, i64 0, i64 4
  store i32 -4191439, ptr %61, align 4, !tbaa !10
  %62 = load ptr, ptr %4, align 8, !tbaa !3
  %63 = getelementptr inbounds nuw %struct.mbedtls_sha256_context, ptr %62, i32 0, i32 2
  %64 = getelementptr inbounds [8 x i32], ptr %63, i64 0, i64 5
  store i32 1750603025, ptr %64, align 4, !tbaa !10
  %65 = load ptr, ptr %4, align 8, !tbaa !3
  %66 = getelementptr inbounds nuw %struct.mbedtls_sha256_context, ptr %65, i32 0, i32 2
  %67 = getelementptr inbounds [8 x i32], ptr %66, i64 0, i64 6
  store i32 1694076839, ptr %67, align 4, !tbaa !10
  %68 = load ptr, ptr %4, align 8, !tbaa !3
  %69 = getelementptr inbounds nuw %struct.mbedtls_sha256_context, ptr %68, i32 0, i32 2
  %70 = getelementptr inbounds [8 x i32], ptr %69, i64 0, i64 7
  store i32 -1090891868, ptr %70, align 4, !tbaa !10
  br label %71

71:                                               ; preds = %46, %21
  %72 = load i32, ptr %5, align 4, !tbaa !10
  %73 = load ptr, ptr %4, align 8, !tbaa !3
  %74 = getelementptr inbounds nuw %struct.mbedtls_sha256_context, ptr %73, i32 0, i32 3
  store i32 %72, ptr %74, align 4, !tbaa !12
  store i32 0, ptr %3, align 4
  br label %75

75:                                               ; preds = %71, %11
  %76 = load i32, ptr %3, align 4
  ret i32 %76
}