; Function Attrs: mustprogress nofree norecurse nosync nounwind willreturn memory(argmem: write) uwtable
define hidden range(i32 -116, 1) i32 @mbedtls_sha256_starts(ptr noundef writeonly captures(none) %0, i32 noundef %1) local_unnamed_addr #0 {
  %or.cond = icmp ugt i32 %1, 1
  br i1 %or.cond, label %18, label %3

3:                                                ; preds = %2
  %4 = getelementptr inbounds nuw i8, ptr %0, i64 64
  store i32 0, ptr %4, align 4, !tbaa !7
  %5 = getelementptr inbounds nuw i8, ptr %0, i64 68
  store i32 0, ptr %5, align 4, !tbaa !7
  %6 = icmp eq i32 %1, 0
  br i1 %6, label %8, label %7

7:                                                ; preds = %3
  br label %8

8:                                                ; preds = %3, %7
  %.sink30 = phi i32 [ -1056596264, %7 ], [ 1779033703, %3 ]
  %.sink29 = phi i32 [ 914150663, %7 ], [ -1150833019, %3 ]
  %.sink28 = phi i32 [ 812702999, %7 ], [ 1013904242, %3 ]
  %.sink27 = phi i32 [ -150054599, %7 ], [ -1521486534, %3 ]
  %.sink26 = phi i32 [ -4191439, %7 ], [ 1359893119, %3 ]
  %.sink25 = phi i32 [ 1750603025, %7 ], [ -1694144372, %3 ]
  %.sink24 = phi i32 [ 1694076839, %7 ], [ 528734635, %3 ]
  %.sink = phi i32 [ -1090891868, %7 ], [ 1541459225, %3 ]
  %9 = getelementptr inbounds nuw i8, ptr %0, i64 72
  store i32 %.sink30, ptr %9, align 4, !tbaa !7
  %10 = getelementptr inbounds nuw i8, ptr %0, i64 76
  store i32 %.sink29, ptr %10, align 4, !tbaa !7
  %11 = getelementptr inbounds nuw i8, ptr %0, i64 80
  store i32 %.sink28, ptr %11, align 4, !tbaa !7
  %12 = getelementptr inbounds nuw i8, ptr %0, i64 84
  store i32 %.sink27, ptr %12, align 4, !tbaa !7
  %13 = getelementptr inbounds nuw i8, ptr %0, i64 88
  store i32 %.sink26, ptr %13, align 4, !tbaa !7
  %14 = getelementptr inbounds nuw i8, ptr %0, i64 92
  store i32 %.sink25, ptr %14, align 4, !tbaa !7
  %15 = getelementptr inbounds nuw i8, ptr %0, i64 96
  store i32 %.sink24, ptr %15, align 4, !tbaa !7
  %16 = getelementptr inbounds nuw i8, ptr %0, i64 100
  store i32 %.sink, ptr %16, align 4, !tbaa !7
  %17 = getelementptr inbounds nuw i8, ptr %0, i64 104
  store i32 %1, ptr %17, align 4, !tbaa !9
  br label %18

18:                                               ; preds = %2, %8
  %.0 = phi i32 [ 0, %8 ], [ -116, %2 ]
  ret i32 %.0
}